target datalayout = "e-m:e-p270:32:32-p271:32:32-p272:64:64-i64:64-i128:128-f80:128-n8:16:32:64-S128"
target triple = "x86_64-pc-linux-gnu"

%struct.Bac_Pair_t_ = type { i32, ptr, ptr }

@s_Pref = internal global ptr @.str.98, align 8

; Function Attrs: nounwind uwtable
define i32 @Bac_NameToType(ptr noundef %0) #0 {
  %2 = alloca i32, align 4
  %3 = alloca ptr, align 8
  %4 = alloca i32, align 4
  %5 = alloca i32, align 4
  store ptr %0, ptr %3, align 8, !tbaa !13
  call void @llvm.lifetime.start.p0(i64 4, ptr %4) #10
  %6 = load ptr, ptr %3, align 8, !tbaa !13
  %7 = load ptr, ptr @s_Pref, align 8, !tbaa !13
  %8 = load ptr, ptr @s_Pref, align 8, !tbaa !13
  %9 = call i64 @strlen(ptr noundef %8) #11
  %10 = call i32 @strncmp(ptr noundef %6, ptr noundef %7, i64 noundef %9) #11
  %11 = icmp ne i32 %10, 0
  br i1 %11, label %12, label %13

12:                                               ; preds = %1
  store i32 0, ptr %2, align 4
  store i32 1, ptr %5, align 4
  br label %47

13:                                               ; preds = %1
  %14 = load ptr, ptr @s_Pref, align 8, !tbaa !13
  %15 = call i64 @strlen(ptr noundef %14) #11
  %16 = load ptr, ptr %3, align 8, !tbaa !13
  %17 = getelementptr inbounds nuw i8, ptr %16, i64 %15
  store ptr %17, ptr %3, align 8, !tbaa !13
  store i32 1, ptr %4, align 4, !tbaa !8
  br label %18

18:                                               ; preds = %43, %13
  %19 = load i32, ptr %4, align 4, !tbaa !8
  %20 = icmp slt i32 %19, 73
  br i1 %20, label %21, label %46

21:                                               ; preds = %18
  %22 = load ptr, ptr %3, align 8, !tbaa !13
  %23 = load i32, ptr %4, align 4, !tbaa !8
  %24 = sext i32 %23 to i64
  %25 = getelementptr inbounds [73 x %struct.Bac_Pair_t_], ptr @s_Types, i64 0, i64 %24
  %26 = getelementptr inbounds nuw %struct.Bac_Pair_t_, ptr %25, i32 0, i32 1
  %27 = load ptr, ptr %26, align 8, !tbaa !10
  %28 = load i32, ptr %4, align 4, !tbaa !8
  %29 = sext i32 %28 to i64
  %30 = getelementptr inbounds [73 x %struct.Bac_Pair_t_], ptr @s_Types, i64 0, i64 %29
  %31 = getelementptr inbounds nuw %struct.Bac_Pair_t_, ptr %30, i32 0, i32 1
  %32 = load ptr, ptr %31, align 8, !tbaa !10
  %33 = call i64 @strlen(ptr noundef %32) #11
  %34 = call i32 @strncmp(ptr noundef %22, ptr noundef %27, i64 noundef %33) #11
  %35 = icmp ne i32 %34, 0
  br i1 %35, label %42, label %36

36:                                               ; preds = %21
  %37 = load i32, ptr %4, align 4, !tbaa !8
  %38 = sext i32 %37 to i64
  %39 = getelementptr inbounds [73 x %struct.Bac_Pair_t_], ptr @s_Types, i64 0, i64 %38
  %40 = getelementptr inbounds nuw %struct.Bac_Pair_t_, ptr %39, i32 0, i32 0
  %41 = load i32, ptr %40, align 8, !tbaa !17
  store i32 %41, ptr %2, align 4
  store i32 1, ptr %5, align 4
  br label %47

42:                                               ; preds = %21
  br label %43

43:                                               ; preds = %42
  %44 = load i32, ptr %4, align 4, !tbaa !8
  %45 = add nsw i32 %44, 1
  store i32 %45, ptr %4, align 4, !tbaa !8
  br label %18, !llvm.loop !34

46:                                               ; preds = %18
  store i32 0, ptr %2, align 4
  store i32 1, ptr %5, align 4
  br label %47

47:                                               ; preds = %46, %36, %12
  call void @llvm.lifetime.end.p0(i64 4, ptr %4) #10
  %48 = load i32, ptr %2, align 4
  ret i32 %48
}