; Function Attrs: nofree nounwind memory(read, inaccessiblemem: none) uwtable
define i32 @Bac_NameToType(ptr noundef readonly captures(none) %0) local_unnamed_addr #5 {
  %2 = tail call i32 @strncmp(ptr noundef nonnull dereferenceable(1) %0, ptr noundef nonnull dereferenceable(5) @.str.98, i64 noundef 4) #22
  %.not = icmp eq i32 %2, 0
  br i1 %.not, label %3, label %.loopexit

3:                                                ; preds = %1
  %4 = getelementptr inbounds nuw i8, ptr %0, i64 4
  br label %6

5:                                                ; preds = %6
  %indvars.iv.next = add nuw nsw i64 %indvars.iv, 1
  %exitcond.not = icmp eq i64 %indvars.iv.next, 73
  br i1 %exitcond.not, label %.loopexit, label %6, !llvm.loop !27

6:                                                ; preds = %3, %5
  %indvars.iv = phi i64 [ 1, %3 ], [ %indvars.iv.next, %5 ]
  %7 = getelementptr inbounds nuw [73 x %struct.Bac_Pair_t_], ptr @s_Types, i64 0, i64 %indvars.iv
  %8 = getelementptr inbounds nuw i8, ptr %7, i64 8
  %9 = load ptr, ptr %8, align 8, !tbaa !12
  %10 = tail call i64 @strlen(ptr noundef nonnull dereferenceable(1) %9) #22
  %11 = tail call i32 @strncmp(ptr noundef nonnull %4, ptr noundef nonnull %9, i64 noundef %10) #22
  %.not9 = icmp eq i32 %11, 0
  br i1 %.not9, label %12, label %5

12:                                               ; preds = %6
  %13 = load i32, ptr %7, align 8, !tbaa !3
  br label %.loopexit

.loopexit:                                        ; preds = %5, %1, %12
  %.08 = phi i32 [ %13, %12 ], [ 0, %1 ], [ 0, %5 ]
  ret i32 %.08
}